;--------------------------------------------------------
; File Created by SDCC : free open source ANSI-C Compiler
; Version 2.8.0 #5117 (Mar 14 2018) (UNIX)
; This file was generated Wed Mar 14 01:15:02 2018
;--------------------------------------------------------
	.module atanf
	.optsdcc -mgbz80
	
;--------------------------------------------------------
; Public variables in this module
;--------------------------------------------------------
	.globl _atanf
;--------------------------------------------------------
;  ram data
;--------------------------------------------------------
	.area _DATA
_atanf_a_1_1:
	.ds 16
;--------------------------------------------------------
; overlayable items in  ram 
;--------------------------------------------------------
	.area _OVERLAY
;--------------------------------------------------------
; external initialized ram data
;--------------------------------------------------------
;--------------------------------------------------------
; global & static initialisations
;--------------------------------------------------------
	.area _HOME
	.area _GSINIT
	.area _GSFINAL
	.area _GSINIT
;atanf.c:49: static myconst float a[]={  0.0, 0.5235987756, 1.5707963268, 1.0471975512 };
;	genArrayInit
; _saveRegsForCall: sendSetSize: 0 deInUse: 0 bcInUse: 0 deSending: 0
	ld	hl,#_atanf_a_1_1
	call	__initrleblock
	.db	#-8,#0x00
	.db	8
	.db	0x01, 0x00, 0x00, 0x00, 0x01, 0x00, 0x00, 0x00
	.db	0
;--------------------------------------------------------
; Home
;--------------------------------------------------------
	.area _HOME
	.area _HOME
;--------------------------------------------------------
; code
;--------------------------------------------------------
	.area _CODE
;atanf.c:45: float atanf(const float x) _FLOAT_FUNC_REENTRANT
;	genLabel
;	genFunction
;	---------------------------------
; Function atanf
; ---------------------------------
_atanf_start::
_atanf:
	lda	sp,-22(sp)
;atanf.c:48: int n=0;
;	genAssign
;	AOP_STK for _atanf_n_1_1
	lda	hl,8(sp)
	ld	(hl),#0x00
	inc	hl
	ld	(hl),#0x00
;atanf.c:51: f=fabsf(x);
;	genIpush
; _saveRegsForCall: sendSetSize: 0 deInUse: 0 bcInUse: 0 deSending: 0
;	AOP_STK for 
	lda	hl,26(sp)
	ld	a,(hl+)
	ld	h,(hl)
	ld	l,a
	push	hl
	lda	hl,26(sp)
	ld	a,(hl+)
	ld	h,(hl)
	ld	l,a
	push	hl
;	genCall
	call	_fabsf
;	AOP_STK for _atanf_f_1_1
	push	hl
	lda	hl,24(sp)
	ld	(hl),e
	inc	hl
	ld	(hl),d
	pop	de
	inc	hl
	ld	(hl),e
	inc	hl
	ld	(hl),d
	lda	sp,4(sp)
;	genAssign
;	AOP_STK for _atanf_f_1_1
;	(registers are the same)
;atanf.c:52: if(f>1.0)
;	genIpush
; _saveRegsForCall: sendSetSize: 0 deInUse: 0 bcInUse: 0 deSending: 0
	ld	hl,#0x3F80
	push	hl
	ld	hl,#0x0000
	push	hl
;	genIpush
;	AOP_STK for _atanf_f_1_1
	lda	hl,24(sp)
	ld	a,(hl+)
	ld	h,(hl)
	ld	l,a
	push	hl
	lda	hl,24(sp)
	ld	a,(hl+)
	ld	h,(hl)
	ld	l,a
	push	hl
;	genCall
	call	___fsgt
	ld	c,e
	lda	sp,8(sp)
;	genIfx
	xor	a,a
	or	a,c
	jp	Z,00102$
;atanf.c:54: f=1.0/f;
;	genIpush
; _saveRegsForCall: sendSetSize: 0 deInUse: 0 bcInUse: 0 deSending: 0
;	AOP_STK for _atanf_f_1_1
	lda	hl,20(sp)
	ld	a,(hl+)
	ld	h,(hl)
	ld	l,a
	push	hl
	lda	hl,20(sp)
	ld	a,(hl+)
	ld	h,(hl)
	ld	l,a
	push	hl
;	genIpush
	ld	hl,#0x3F80
	push	hl
	ld	hl,#0x0000
	push	hl
;	genCall
	call	___fsdiv
;	AOP_STK for _atanf__1_0
	push	hl
	lda	hl,14(sp)
	ld	(hl),e
	inc	hl
	ld	(hl),d
	pop	de
	inc	hl
	ld	(hl),e
	inc	hl
	ld	(hl),d
	lda	sp,8(sp)
;	genAssign
;	AOP_STK for _atanf__1_0
;	AOP_STK for _atanf_f_1_1
	lda	hl,4(sp)
	ld	d,h
	ld	e,l
	lda	hl,18(sp)
	ld	a,(de)
	ld	(hl+),a
	inc	de
	ld	a,(de)
	ld	(hl+),a
	inc	de
	ld	a,(de)
	ld	(hl+),a
	inc	de
	ld	a,(de)
	ld	(hl),a
;atanf.c:55: n=2;
;	genAssign
;	AOP_STK for _atanf_n_1_1
	lda	hl,8(sp)
	ld	(hl),#0x02
	inc	hl
	ld	(hl),#0x00
;	genLabel
00102$:
;atanf.c:57: if(f>K1)
;	genIpush
; _saveRegsForCall: sendSetSize: 0 deInUse: 0 bcInUse: 0 deSending: 0
	ld	hl,#0x3E89
	push	hl
	ld	hl,#0x30A3
	push	hl
;	genIpush
;	AOP_STK for _atanf_f_1_1
	lda	hl,24(sp)
	ld	a,(hl+)
	ld	h,(hl)
	ld	l,a
	push	hl
	lda	hl,24(sp)
	ld	a,(hl+)
	ld	h,(hl)
	ld	l,a
	push	hl
;	genCall
	call	___fsgt
	ld	c,e
	lda	sp,8(sp)
;	genIfx
	xor	a,a
	or	a,c
	jp	Z,00104$
;atanf.c:59: f=((K2*f-1.0)+f)/(K3+f);
;	genIpush
; _saveRegsForCall: sendSetSize: 0 deInUse: 0 bcInUse: 0 deSending: 0
;	AOP_STK for _atanf_f_1_1
	lda	hl,20(sp)
	ld	a,(hl+)
	ld	h,(hl)
	ld	l,a
	push	hl
	lda	hl,20(sp)
	ld	a,(hl+)
	ld	h,(hl)
	ld	l,a
	push	hl
;	genIpush
	ld	hl,#0x3F3B
	push	hl
	ld	hl,#0x67AF
	push	hl
;	genCall
	call	___fsmul
;	AOP_STK for _atanf__1_0
	push	hl
	lda	hl,14(sp)
	ld	(hl),e
	inc	hl
	ld	(hl),d
	pop	de
	inc	hl
	ld	(hl),e
	inc	hl
	ld	(hl),d
	lda	sp,8(sp)
;	genIpush
; _saveRegsForCall: sendSetSize: 0 deInUse: 0 bcInUse: 0 deSending: 0
	ld	hl,#0x3F80
	push	hl
	ld	hl,#0x0000
	push	hl
;	genIpush
;	AOP_STK for _atanf__1_0
	lda	hl,10(sp)
	ld	a,(hl+)
	ld	h,(hl)
	ld	l,a
	push	hl
	lda	hl,10(sp)
	ld	a,(hl+)
	ld	h,(hl)
	ld	l,a
	push	hl
;	genCall
	call	___fssub
;	AOP_STK for _atanf__1_0
	push	hl
	lda	hl,14(sp)
	ld	(hl),e
	inc	hl
	ld	(hl),d
	pop	de
	inc	hl
	ld	(hl),e
	inc	hl
	ld	(hl),d
	lda	sp,8(sp)
;	genIpush
; _saveRegsForCall: sendSetSize: 0 deInUse: 0 bcInUse: 0 deSending: 0
;	AOP_STK for _atanf_f_1_1
	lda	hl,20(sp)
	ld	a,(hl+)
	ld	h,(hl)
	ld	l,a
	push	hl
	lda	hl,20(sp)
	ld	a,(hl+)
	ld	h,(hl)
	ld	l,a
	push	hl
;	genIpush
;	AOP_STK for _atanf__1_0
	lda	hl,10(sp)
	ld	a,(hl+)
	ld	h,(hl)
	ld	l,a
	push	hl
	lda	hl,10(sp)
	ld	a,(hl+)
	ld	h,(hl)
	ld	l,a
	push	hl
;	genCall
	call	___fsadd
;	AOP_STK for _atanf__1_0
	push	hl
	lda	hl,14(sp)
	ld	(hl),e
	inc	hl
	ld	(hl),d
	pop	de
	inc	hl
	ld	(hl),e
	inc	hl
	ld	(hl),d
	lda	sp,8(sp)
;	genIpush
; _saveRegsForCall: sendSetSize: 0 deInUse: 0 bcInUse: 0 deSending: 0
	ld	hl,#0x3FDD
	push	hl
	ld	hl,#0xB3D7
	push	hl
;	genIpush
;	AOP_STK for _atanf_f_1_1
	lda	hl,24(sp)
	ld	a,(hl+)
	ld	h,(hl)
	ld	l,a
	push	hl
	lda	hl,24(sp)
	ld	a,(hl+)
	ld	h,(hl)
	ld	l,a
	push	hl
;	genCall
	call	___fsadd
;	AOP_STK for _atanf__1_0
	push	hl
	lda	hl,10(sp)
	ld	(hl),e
	inc	hl
	ld	(hl),d
	pop	de
	inc	hl
	ld	(hl),e
	inc	hl
	ld	(hl),d
	lda	sp,8(sp)
;	genIpush
; _saveRegsForCall: sendSetSize: 0 deInUse: 0 bcInUse: 0 deSending: 0
;	AOP_STK for _atanf__1_0
	lda	hl,2(sp)
	ld	a,(hl+)
	ld	h,(hl)
	ld	l,a
	push	hl
	lda	hl,2(sp)
	ld	a,(hl+)
	ld	h,(hl)
	ld	l,a
	push	hl
;	genIpush
;	AOP_STK for _atanf__1_0
	lda	hl,10(sp)
	ld	a,(hl+)
	ld	h,(hl)
	ld	l,a
	push	hl
	lda	hl,10(sp)
	ld	a,(hl+)
	ld	h,(hl)
	ld	l,a
	push	hl
;	genCall
	call	___fsdiv
;	AOP_STK for _atanf__1_0
	push	hl
	lda	hl,10(sp)
	ld	(hl),e
	inc	hl
	ld	(hl),d
	pop	de
	inc	hl
	ld	(hl),e
	inc	hl
	ld	(hl),d
	lda	sp,8(sp)
;	genAssign
;	AOP_STK for _atanf__1_0
;	AOP_STK for _atanf_f_1_1
	lda	hl,0(sp)
	ld	d,h
	ld	e,l
	lda	hl,18(sp)
	ld	a,(de)
	ld	(hl+),a
	inc	de
	ld	a,(de)
	ld	(hl+),a
	inc	de
	ld	a,(de)
	ld	(hl+),a
	inc	de
	ld	a,(de)
	ld	(hl),a
;atanf.c:63: n++;
;	genPlus
;	AOP_STK for _atanf_n_1_1
;	genPlusIncr
	lda	hl,8(sp)
	inc	(hl)
	jr	NZ,00119$
	inc	hl
	inc	(hl)
00119$:
;	genLabel
00104$:
;atanf.c:65: if(fabsf(f)<EPS) r=f;
;	genIpush
; _saveRegsForCall: sendSetSize: 0 deInUse: 0 bcInUse: 0 deSending: 0
;	AOP_STK for _atanf_f_1_1
	lda	hl,20(sp)
	ld	a,(hl+)
	ld	h,(hl)
	ld	l,a
	push	hl
	lda	hl,20(sp)
	ld	a,(hl+)
	ld	h,(hl)
	ld	l,a
	push	hl
;	genCall
	call	_fabsf
;	AOP_STK for _atanf__1_0
	push	hl
	lda	hl,6(sp)
	ld	(hl),e
	inc	hl
	ld	(hl),d
	pop	de
	inc	hl
	ld	(hl),e
	inc	hl
	ld	(hl),d
	lda	sp,4(sp)
;	genIpush
; _saveRegsForCall: sendSetSize: 0 deInUse: 0 bcInUse: 0 deSending: 0
	ld	hl,#0x3980
	push	hl
	ld	hl,#0x0000
	push	hl
;	genIpush
;	AOP_STK for _atanf__1_0
	lda	hl,6(sp)
	ld	a,(hl+)
	ld	h,(hl)
	ld	l,a
	push	hl
	lda	hl,6(sp)
	ld	a,(hl+)
	ld	h,(hl)
	ld	l,a
	push	hl
;	genCall
	call	___fslt
	ld	c,e
	lda	sp,8(sp)
;	genIfx
	xor	a,a
	or	a,c
	jp	Z,00106$
;	genAssign
;	AOP_STK for _atanf_f_1_1
;	AOP_STK for _atanf_r_1_1
	lda	hl,18(sp)
	ld	d,h
	ld	e,l
	lda	hl,14(sp)
	ld	a,(de)
	ld	(hl+),a
	inc	de
	ld	a,(de)
	ld	(hl+),a
	inc	de
	ld	a,(de)
	ld	(hl+),a
	inc	de
	ld	a,(de)
	ld	(hl),a
;	genGoto
	jp	00107$
;	genLabel
00106$:
;atanf.c:68: g=f*f;
;	genIpush
; _saveRegsForCall: sendSetSize: 0 deInUse: 0 bcInUse: 0 deSending: 0
;	AOP_STK for _atanf_f_1_1
	lda	hl,20(sp)
	ld	a,(hl+)
	ld	h,(hl)
	ld	l,a
	push	hl
	lda	hl,20(sp)
	ld	a,(hl+)
	ld	h,(hl)
	ld	l,a
	push	hl
;	genIpush
;	AOP_STK for _atanf_f_1_1
	lda	hl,24(sp)
	ld	a,(hl+)
	ld	h,(hl)
	ld	l,a
	push	hl
	lda	hl,24(sp)
	ld	a,(hl+)
	ld	h,(hl)
	ld	l,a
	push	hl
;	genCall
	call	___fsmul
;	AOP_STK for _atanf_g_1_1
	push	hl
	lda	hl,20(sp)
	ld	(hl),e
	inc	hl
	ld	(hl),d
	pop	de
	inc	hl
	ld	(hl),e
	inc	hl
	ld	(hl),d
	lda	sp,8(sp)
;	genAssign
;	AOP_STK for _atanf_g_1_1
;	(registers are the same)
;atanf.c:69: r=f+P(g,f)/Q(g);
;	genIpush
; _saveRegsForCall: sendSetSize: 0 deInUse: 0 bcInUse: 0 deSending: 0
;	AOP_STK for _atanf_g_1_1
	lda	hl,12(sp)
	ld	a,(hl+)
	ld	h,(hl)
	ld	l,a
	push	hl
	lda	hl,12(sp)
	ld	a,(hl+)
	ld	h,(hl)
	ld	l,a
	push	hl
;	genIpush
	ld	hl,#0xBD50
	push	hl
	ld	hl,#0x8691
	push	hl
;	genCall
	call	___fsmul
;	AOP_STK for _atanf__1_0
	push	hl
	lda	hl,10(sp)
	ld	(hl),e
	inc	hl
	ld	(hl),d
	pop	de
	inc	hl
	ld	(hl),e
	inc	hl
	ld	(hl),d
	lda	sp,8(sp)
;	genIpush
; _saveRegsForCall: sendSetSize: 0 deInUse: 0 bcInUse: 0 deSending: 0
	ld	hl,#0xBEF1
	push	hl
	ld	hl,#0x10F6
	push	hl
;	genIpush
;	AOP_STK for _atanf__1_0
	lda	hl,6(sp)
	ld	a,(hl+)
	ld	h,(hl)
	ld	l,a
	push	hl
	lda	hl,6(sp)
	ld	a,(hl+)
	ld	h,(hl)
	ld	l,a
	push	hl
;	genCall
	call	___fsadd
;	AOP_STK for _atanf__1_0
	push	hl
	lda	hl,10(sp)
	ld	(hl),e
	inc	hl
	ld	(hl),d
	pop	de
	inc	hl
	ld	(hl),e
	inc	hl
	ld	(hl),d
	lda	sp,8(sp)
;	genIpush
; _saveRegsForCall: sendSetSize: 0 deInUse: 0 bcInUse: 0 deSending: 0
;	AOP_STK for _atanf_g_1_1
	lda	hl,12(sp)
	ld	a,(hl+)
	ld	h,(hl)
	ld	l,a
	push	hl
	lda	hl,12(sp)
	ld	a,(hl+)
	ld	h,(hl)
	ld	l,a
	push	hl
;	genIpush
;	AOP_STK for _atanf__1_0
	lda	hl,6(sp)
	ld	a,(hl+)
	ld	h,(hl)
	ld	l,a
	push	hl
	lda	hl,6(sp)
	ld	a,(hl+)
	ld	h,(hl)
	ld	l,a
	push	hl
;	genCall
	call	___fsmul
;	AOP_STK for _atanf__1_0
	push	hl
	lda	hl,10(sp)
	ld	(hl),e
	inc	hl
	ld	(hl),d
	pop	de
	inc	hl
	ld	(hl),e
	inc	hl
	ld	(hl),d
	lda	sp,8(sp)
;	genIpush
; _saveRegsForCall: sendSetSize: 0 deInUse: 0 bcInUse: 0 deSending: 0
;	AOP_STK for _atanf_f_1_1
	lda	hl,20(sp)
	ld	a,(hl+)
	ld	h,(hl)
	ld	l,a
	push	hl
	lda	hl,20(sp)
	ld	a,(hl+)
	ld	h,(hl)
	ld	l,a
	push	hl
;	genIpush
;	AOP_STK for _atanf__1_0
	lda	hl,6(sp)
	ld	a,(hl+)
	ld	h,(hl)
	ld	l,a
	push	hl
	lda	hl,6(sp)
	ld	a,(hl+)
	ld	h,(hl)
	ld	l,a
	push	hl
;	genCall
	call	___fsmul
;	AOP_STK for _atanf__1_0
	push	hl
	lda	hl,10(sp)
	ld	(hl),e
	inc	hl
	ld	(hl),d
	pop	de
	inc	hl
	ld	(hl),e
	inc	hl
	ld	(hl),d
	lda	sp,8(sp)
;	genIpush
; _saveRegsForCall: sendSetSize: 0 deInUse: 0 bcInUse: 0 deSending: 0
	ld	hl,#0x3FB4
	push	hl
	ld	hl,#0xCCD3
	push	hl
;	genIpush
;	AOP_STK for _atanf_g_1_1
	lda	hl,16(sp)
	ld	a,(hl+)
	ld	h,(hl)
	ld	l,a
	push	hl
	lda	hl,16(sp)
	ld	a,(hl+)
	ld	h,(hl)
	ld	l,a
	push	hl
;	genCall
	call	___fsadd
;	AOP_STK for _atanf__1_0
	push	hl
	lda	hl,14(sp)
	ld	(hl),e
	inc	hl
	ld	(hl),d
	pop	de
	inc	hl
	ld	(hl),e
	inc	hl
	ld	(hl),d
	lda	sp,8(sp)
;	genIpush
; _saveRegsForCall: sendSetSize: 0 deInUse: 0 bcInUse: 0 deSending: 0
;	AOP_STK for _atanf__1_0
	lda	hl,6(sp)
	ld	a,(hl+)
	ld	h,(hl)
	ld	l,a
	push	hl
	lda	hl,6(sp)
	ld	a,(hl+)
	ld	h,(hl)
	ld	l,a
	push	hl
;	genIpush
;	AOP_STK for _atanf__1_0
	lda	hl,6(sp)
	ld	a,(hl+)
	ld	h,(hl)
	ld	l,a
	push	hl
	lda	hl,6(sp)
	ld	a,(hl+)
	ld	h,(hl)
	ld	l,a
	push	hl
;	genCall
	call	___fsdiv
;	AOP_STK for _atanf__1_0
	push	hl
	lda	hl,10(sp)
	ld	(hl),e
	inc	hl
	ld	(hl),d
	pop	de
	inc	hl
	ld	(hl),e
	inc	hl
	ld	(hl),d
	lda	sp,8(sp)
;	genIpush
; _saveRegsForCall: sendSetSize: 0 deInUse: 0 bcInUse: 0 deSending: 0
;	AOP_STK for _atanf__1_0
	lda	hl,2(sp)
	ld	a,(hl+)
	ld	h,(hl)
	ld	l,a
	push	hl
	lda	hl,2(sp)
	ld	a,(hl+)
	ld	h,(hl)
	ld	l,a
	push	hl
;	genIpush
;	AOP_STK for _atanf_f_1_1
	lda	hl,24(sp)
	ld	a,(hl+)
	ld	h,(hl)
	ld	l,a
	push	hl
	lda	hl,24(sp)
	ld	a,(hl+)
	ld	h,(hl)
	ld	l,a
	push	hl
;	genCall
	call	___fsadd
;	AOP_STK for _atanf__1_0
	push	hl
	lda	hl,10(sp)
	ld	(hl),e
	inc	hl
	ld	(hl),d
	pop	de
	inc	hl
	ld	(hl),e
	inc	hl
	ld	(hl),d
	lda	sp,8(sp)
;	genAssign
;	AOP_STK for _atanf__1_0
;	AOP_STK for _atanf_r_1_1
	lda	hl,0(sp)
	ld	d,h
	ld	e,l
	lda	hl,14(sp)
	ld	a,(de)
	ld	(hl+),a
	inc	de
	ld	a,(de)
	ld	(hl+),a
	inc	de
	ld	a,(de)
	ld	(hl+),a
	inc	de
	ld	a,(de)
	ld	(hl),a
;	genLabel
00107$:
;atanf.c:71: if(n>1) r=-r;
;	genCmpGt
;	AOP_STK for _atanf_n_1_1
	ld	a,#0x01
	lda	hl,8(sp)
	sub	a,(hl)
	ld	a,#0x00
	inc	hl
	sbc	a,(hl)
	rlca
	jp	NC,00109$
;	genUminus
;	AOP_STK for _atanf_r_1_1
;	genUminusFloat
	lda	hl,17(sp)
	ld	a,(hl)
	xor	a,#0x80
	ld	(hl),a
	lda	hl,14(sp)
	ld	a,(hl)
	ld	(hl+),a
	ld	a,(hl)
	ld	(hl+),a
	ld	a,(hl)
	ld	(hl),a
;	genLabel
00109$:
;atanf.c:72: r+=a[n];
;	genLeftShift
;	AOP_STK for _atanf_n_1_1
	lda	hl,8(sp)
	ld	c,(hl)
	inc	hl
	ld	b,(hl)
	sla	c
	rl	b
	sla	c
	rl	b
;	genPlus
	ld	hl,#_atanf_a_1_1
	add	hl,bc
	ld	c,l
	ld	b,h
;	genPointerGet
;	AOP_STK for _atanf__1_0
	ld	e,c
	ld	d,b
	ld	a,(de)
	lda	hl,0(sp)
	ld	(hl+),a
	inc	de
	ld	a,(de)
	ld	(hl+),a
	inc	de
	ld	a,(de)
	ld	(hl+),a
	inc	de
	ld	a,(de)
;	genIpush
; _saveRegsForCall: sendSetSize: 0 deInUse: 0 bcInUse: 0 deSending: 0
;	AOP_STK for _atanf__1_0
	ld	(hl-),a
	ld	a,(hl+)
	ld	h,(hl)
	ld	l,a
	push	hl
	lda	hl,2(sp)
	ld	a,(hl+)
	ld	h,(hl)
	ld	l,a
	push	hl
;	genIpush
;	AOP_STK for _atanf_r_1_1
	lda	hl,20(sp)
	ld	a,(hl+)
	ld	h,(hl)
	ld	l,a
	push	hl
	lda	hl,20(sp)
	ld	a,(hl+)
	ld	h,(hl)
	ld	l,a
	push	hl
;	genCall
	call	___fsadd
;	AOP_STK for _atanf__1_0
	push	hl
	lda	hl,10(sp)
	ld	(hl),e
	inc	hl
	ld	(hl),d
	pop	de
	inc	hl
	ld	(hl),e
	inc	hl
	ld	(hl),d
	lda	sp,8(sp)
;	genAssign
;	AOP_STK for _atanf__1_0
;	AOP_STK for _atanf_r_1_1
	lda	hl,0(sp)
	ld	d,h
	ld	e,l
	lda	hl,14(sp)
	ld	a,(de)
	ld	(hl+),a
	inc	de
	ld	a,(de)
	ld	(hl+),a
	inc	de
	ld	a,(de)
	ld	(hl+),a
	inc	de
	ld	a,(de)
	ld	(hl),a
;atanf.c:73: if(x<0.0) r=-r;
;	genIpush
; _saveRegsForCall: sendSetSize: 0 deInUse: 0 bcInUse: 0 deSending: 0
	ld	hl,#0x0000
	push	hl
	ld	hl,#0x0000
	push	hl
;	genIpush
;	AOP_STK for 
	lda	hl,30(sp)
	ld	a,(hl+)
	ld	h,(hl)
	ld	l,a
	push	hl
	lda	hl,30(sp)
	ld	a,(hl+)
	ld	h,(hl)
	ld	l,a
	push	hl
;	genCall
	call	___fslt
	ld	c,e
	lda	sp,8(sp)
;	genIfx
	xor	a,a
	or	a,c
	jp	Z,00111$
;	genUminus
;	AOP_STK for _atanf_r_1_1
;	genUminusFloat
	lda	hl,17(sp)
	ld	a,(hl)
	xor	a,#0x80
	ld	(hl),a
	lda	hl,14(sp)
	ld	a,(hl)
	ld	(hl+),a
	ld	a,(hl)
	ld	(hl+),a
	ld	a,(hl)
	ld	(hl),a
;	genLabel
00111$:
;atanf.c:74: return r;
;	genRet
;	AOP_STK for _atanf_r_1_1
; Dump of IC_LEFT: type AOP_STK size 4
;	 aop_stk -8
	lda	hl,14(sp)
	ld	e,(hl)
	inc	hl
	ld	d,(hl)
	inc	hl
	ld	a,(hl+)
	ld	h,(hl)
	ld	l,a
;	genLabel
00112$:
;	genEndFunction
	lda	sp,22(sp)
	ret
_atanf_end::
	.area _CODE
	.area _CABS
