;--------------------------------------------------------
; File Created by SDCC : free open source ANSI-C Compiler
; Version 2.8.0 #5117 (Mar 14 2018) (UNIX)
; This file was generated Wed Mar 14 01:14:28 2018
;--------------------------------------------------------
	.module asincosf
	.optsdcc -mmcs51 --model-large
	
;--------------------------------------------------------
; Public variables in this module
;--------------------------------------------------------
	.globl _asincosf
	.globl _asincosf_PARM_2
;--------------------------------------------------------
; special function registers
;--------------------------------------------------------
	.area RSEG    (DATA)
;--------------------------------------------------------
; special function bits
;--------------------------------------------------------
	.area RSEG    (DATA)
;--------------------------------------------------------
; overlayable register banks
;--------------------------------------------------------
	.area REG_BANK_0	(REL,OVR,DATA)
	.ds 8
;--------------------------------------------------------
; internal ram data
;--------------------------------------------------------
	.area DSEG    (DATA)
_asincosf_sloc0_1_0:
	.ds 4
;--------------------------------------------------------
; overlayable items in internal ram 
;--------------------------------------------------------
	.area OSEG    (OVR,DATA)
;--------------------------------------------------------
; indirectly addressable internal ram data
;--------------------------------------------------------
	.area ISEG    (DATA)
;--------------------------------------------------------
; absolute internal ram data
;--------------------------------------------------------
	.area IABS    (ABS,DATA)
	.area IABS    (ABS,DATA)
;--------------------------------------------------------
; bit data
;--------------------------------------------------------
	.area BSEG    (BIT)
;--------------------------------------------------------
; paged external ram data
;--------------------------------------------------------
	.area PSEG    (PAG,XDATA)
;--------------------------------------------------------
; external ram data
;--------------------------------------------------------
	.area XSEG    (XDATA)
_asincosf_PARM_2:
	.ds 2
_asincosf_x_1_1:
	.ds 4
_asincosf_y_1_1:
	.ds 4
_asincosf_g_1_1:
	.ds 4
_asincosf_r_1_1:
	.ds 4
_asincosf_i_1_1:
	.ds 2
;--------------------------------------------------------
; absolute external ram data
;--------------------------------------------------------
	.area XABS    (ABS,XDATA)
;--------------------------------------------------------
; external initialized ram data
;--------------------------------------------------------
	.area XISEG   (XDATA)
	.area HOME    (CODE)
	.area GSINIT0 (CODE)
	.area GSINIT1 (CODE)
	.area GSINIT2 (CODE)
	.area GSINIT3 (CODE)
	.area GSINIT4 (CODE)
	.area GSINIT5 (CODE)
	.area GSINIT  (CODE)
	.area GSFINAL (CODE)
	.area CSEG    (CODE)
;--------------------------------------------------------
; global & static initialisations
;--------------------------------------------------------
	.area HOME    (CODE)
	.area GSINIT  (CODE)
	.area GSFINAL (CODE)
	.area GSINIT  (CODE)
;--------------------------------------------------------
; Home
;--------------------------------------------------------
	.area HOME    (CODE)
	.area HOME    (CODE)
;--------------------------------------------------------
; code
;--------------------------------------------------------
	.area CSEG    (CODE)
;------------------------------------------------------------
;Allocation info for local variables in function 'asincosf'
;------------------------------------------------------------
;sloc0                     Allocated with name '_asincosf_sloc0_1_0'
;isacos                    Allocated with name '_asincosf_PARM_2'
;x                         Allocated with name '_asincosf_x_1_1'
;y                         Allocated with name '_asincosf_y_1_1'
;g                         Allocated with name '_asincosf_g_1_1'
;r                         Allocated with name '_asincosf_r_1_1'
;i                         Allocated with name '_asincosf_i_1_1'
;------------------------------------------------------------
;	asincosf.c:42: float asincosf(const float x, const int isacos)
;	-----------------------------------------
;	 function asincosf
;	-----------------------------------------
_asincosf:
	ar2 = 0x02
	ar3 = 0x03
	ar4 = 0x04
	ar5 = 0x05
	ar6 = 0x06
	ar7 = 0x07
	ar0 = 0x00
	ar1 = 0x01
	mov	r2,dpl
	mov	r3,dph
	mov	r4,b
	mov	r5,a
	mov	dptr,#_asincosf_x_1_1
	mov	a,r2
	movx	@dptr,a
	inc	dptr
	mov	a,r3
	movx	@dptr,a
	inc	dptr
	mov	a,r4
	movx	@dptr,a
	inc	dptr
	mov	a,r5
	movx	@dptr,a
;	asincosf.c:50: y=fabsf(x);
	mov	dptr,#_asincosf_x_1_1
	movx	a,@dptr
	mov	r2,a
	inc	dptr
	movx	a,@dptr
	mov	r3,a
	inc	dptr
	movx	a,@dptr
	mov	r4,a
	inc	dptr
	movx	a,@dptr
	mov	dpl,r2
	mov	dph,r3
	mov	b,r4
	lcall	_fabsf
	mov	r2,dpl
	mov	r3,dph
	mov	r4,b
	mov	r5,a
	mov	dptr,#_asincosf_y_1_1
	mov	a,r2
	movx	@dptr,a
	inc	dptr
	mov	a,r3
	movx	@dptr,a
	inc	dptr
	mov	a,r4
	movx	@dptr,a
	inc	dptr
	mov	a,r5
	movx	@dptr,a
;	asincosf.c:51: i=isacos;
	mov	dptr,#_asincosf_PARM_2
	movx	a,@dptr
	mov	r6,a
	inc	dptr
	movx	a,@dptr
	mov	r7,a
	mov	dptr,#_asincosf_i_1_1
	mov	a,r6
	movx	@dptr,a
	inc	dptr
	mov	a,r7
	movx	@dptr,a
;	asincosf.c:52: if (y < EPS) r=y;
	push	ar2
	push	ar3
	push	ar4
	push	ar5
	push	ar6
	push	ar7
	clr	a
	push	acc
	push	acc
	mov	a,#0x80
	push	acc
	mov	a,#0x39
	push	acc
	mov	dpl,r2
	mov	dph,r3
	mov	b,r4
	mov	a,r5
	lcall	___fslt
	mov	r0,dpl
	mov	a,sp
	add	a,#0xfc
	mov	sp,a
	pop	ar7
	pop	ar6
	pop	ar5
	pop	ar4
	pop	ar3
	pop	ar2
	mov	a,r0
	jz	00107$
	mov	dptr,#_asincosf_r_1_1
	mov	a,r2
	movx	@dptr,a
	inc	dptr
	mov	a,r3
	movx	@dptr,a
	inc	dptr
	mov	a,r4
	movx	@dptr,a
	inc	dptr
	mov	a,r5
	movx	@dptr,a
	ljmp	00108$
00107$:
;	asincosf.c:55: if (y > 0.5)
	push	ar2
	push	ar3
	push	ar4
	push	ar5
	push	ar6
	push	ar7
	clr	a
	push	acc
	push	acc
	push	acc
	mov	a,#0x3F
	push	acc
	mov	dpl,r2
	mov	dph,r3
	mov	b,r4
	mov	a,r5
	lcall	___fsgt
	mov	r0,dpl
	mov	a,sp
	add	a,#0xfc
	mov	sp,a
	pop	ar7
	pop	ar6
	pop	ar5
	pop	ar4
	pop	ar3
	pop	ar2
	mov	a,r0
	jnz	00126$
	ljmp	00104$
00126$:
;	asincosf.c:57: i=1-i;
	mov	dptr,#_asincosf_i_1_1
	mov	a,#0x01
	clr	c
	subb	a,r6
	movx	@dptr,a
	clr	a
	subb	a,r7
	inc	dptr
	movx	@dptr,a
;	asincosf.c:58: if (y > 1.0)
	push	ar2
	push	ar3
	push	ar4
	push	ar5
	push	ar6
	push	ar7
	clr	a
	push	acc
	push	acc
	mov	a,#0x80
	push	acc
	mov	a,#0x3F
	push	acc
	mov	dpl,r2
	mov	dph,r3
	mov	b,r4
	mov	a,r5
	lcall	___fsgt
	mov	r0,dpl
	mov	a,sp
	add	a,#0xfc
	mov	sp,a
	pop	ar7
	pop	ar6
	pop	ar5
	pop	ar4
	pop	ar3
	pop	ar2
	mov	a,r0
	jz	00102$
;	asincosf.c:60: errno=EDOM;
	mov	dptr,#_errno
	mov	a,#0x21
	movx	@dptr,a
	clr	a
	inc	dptr
	movx	@dptr,a
;	asincosf.c:61: return 0.0;
	mov	dptr,#(0x00&0x00ff)
	clr	a
	mov	b,a
	ret
00102$:
;	asincosf.c:63: g=(0.5-y)+0.5;
	push	ar6
	push	ar7
	push	ar2
	push	ar3
	push	ar4
	push	ar5
;	asincosf.c:64: g=ldexpf(g,-1);
	mov	dptr,#0x0000
	mov	b,#0x80
	mov	a,#0x3F
	lcall	___fssub
	mov	r0,dpl
	mov	r1,dph
	mov	r6,b
	mov	r7,a
	mov	a,sp
	add	a,#0xfc
	mov	sp,a
	mov	dptr,#_ldexpf_PARM_2
	mov	a,#0xFF
	movx	@dptr,a
	inc	dptr
	movx	@dptr,a
	mov	dpl,r0
	mov	dph,r1
	mov	b,r6
	mov	a,r7
	lcall	_ldexpf
	mov	r6,dpl
	mov	r7,dph
	mov	r0,b
	mov	r1,a
	mov	dptr,#_asincosf_g_1_1
	mov	a,r6
	movx	@dptr,a
	inc	dptr
	mov	a,r7
	movx	@dptr,a
	inc	dptr
	mov	a,r0
	movx	@dptr,a
	inc	dptr
;	asincosf.c:65: y=sqrtf(g);
	mov	a,r1
	movx	@dptr,a
	mov	dpl,r6
	mov	dph,r7
	mov	b,r0
	lcall	_sqrtf
	mov	r6,dpl
	mov	r7,dph
	mov	r0,b
	mov	r1,a
;	asincosf.c:66: y=-(y+y);
	push	ar6
	push	ar7
	push	ar0
	push	ar1
	mov	dpl,r6
	mov	dph,r7
	mov	b,r0
	mov	a,r1
	lcall	___fsadd
	mov	r6,dpl
	mov	r7,dph
	mov	r0,b
	mov	r1,a
	mov	a,sp
	add	a,#0xfc
	mov	sp,a
	mov	dptr,#_asincosf_y_1_1
	mov	a,r6
	movx	@dptr,a
	inc	dptr
	mov	a,r7
	movx	@dptr,a
	inc	dptr
	mov	a,r0
	movx	@dptr,a
	mov	a,r1
	cpl	acc.7
	inc	dptr
	movx	@dptr,a
	pop	ar7
	pop	ar6
	sjmp	00105$
00104$:
;	asincosf.c:70: g=y*y;
	push	ar6
	push	ar7
	push	ar2
	push	ar3
	push	ar4
	push	ar5
	mov	dpl,r2
	mov	dph,r3
	mov	b,r4
	mov	a,r5
	lcall	___fsmul
	mov	r2,dpl
	mov	r3,dph
	mov	r4,b
	mov	r5,a
	mov	a,sp
	add	a,#0xfc
	mov	sp,a
	pop	ar7
	pop	ar6
	mov	dptr,#_asincosf_g_1_1
	mov	a,r2
	movx	@dptr,a
	inc	dptr
	mov	a,r3
	movx	@dptr,a
	inc	dptr
	mov	a,r4
	movx	@dptr,a
	inc	dptr
	mov	a,r5
	movx	@dptr,a
00105$:
;	asincosf.c:72: r=y+y*((P(g)*g)/Q(g));
	push	ar6
	push	ar7
	mov	dptr,#_asincosf_g_1_1
	movx	a,@dptr
	mov	r2,a
	inc	dptr
	movx	a,@dptr
	mov	r3,a
	inc	dptr
	movx	a,@dptr
	mov	r4,a
	inc	dptr
	movx	a,@dptr
	mov	r5,a
	push	ar2
	push	ar3
	push	ar4
	push	ar5
	push	ar2
	push	ar3
	push	ar4
	push	ar5
	mov	dptr,#0x2065
	mov	b,#0x01
	mov	a,#0xBF
	lcall	___fsmul
	mov	r0,dpl
	mov	r1,dph
	mov	r6,b
	mov	r7,a
	mov	a,sp
	add	a,#0xfc
	mov	sp,a
	mov	a,#0x6B
	push	acc
	mov	a,#0x16
	push	acc
	mov	a,#0x6F
	push	acc
	mov	a,#0x3F
	push	acc
	mov	dpl,r0
	mov	dph,r1
	mov	b,r6
	mov	a,r7
	lcall	___fsadd
	mov	r6,dpl
	mov	r7,dph
	mov	r0,b
	mov	r1,a
	mov	a,sp
	add	a,#0xfc
	mov	sp,a
	pop	ar5
	pop	ar4
	pop	ar3
	pop	ar2
	push	ar2
	push	ar3
	push	ar4
	push	ar5
	push	ar6
	push	ar7
	push	ar2
	push	ar3
	push	ar4
	push	ar5
	mov	dpl,r6
	mov	dph,r7
	mov	b,r0
	mov	a,r1
	lcall	___fsmul
	mov	_asincosf_sloc0_1_0,dpl
	mov	(_asincosf_sloc0_1_0 + 1),dph
	mov	(_asincosf_sloc0_1_0 + 2),b
	mov	(_asincosf_sloc0_1_0 + 3),a
	mov	a,sp
	add	a,#0xfc
	mov	sp,a
	pop	ar7
	pop	ar6
	pop	ar5
	pop	ar4
	pop	ar3
	pop	ar2
	push	ar2
	push	ar3
	push	ar4
	push	ar5
	mov	a,#0x0B
	push	acc
	mov	a,#0x8D
	push	acc
	mov	a,#0xB1
	push	acc
	mov	a,#0xC0
	push	acc
	mov	dpl,r2
	mov	dph,r3
	mov	b,r4
	mov	a,r5
	lcall	___fsadd
	mov	r6,dpl
	mov	r7,dph
	mov	r0,b
	mov	r1,a
	mov	a,sp
	add	a,#0xfc
	mov	sp,a
	pop	ar5
	pop	ar4
	pop	ar3
	pop	ar2
	push	ar6
	push	ar7
	push	ar2
	push	ar3
	push	ar4
	push	ar5
	mov	dpl,r6
	mov	dph,r7
	mov	b,r0
	mov	a,r1
	lcall	___fsmul
	mov	r2,dpl
	mov	r3,dph
	mov	r4,b
	mov	r5,a
	mov	a,sp
	add	a,#0xfc
	mov	sp,a
	mov	a,#0xF0
	push	acc
	mov	a,#0x50
	push	acc
	mov	a,#0xB3
	push	acc
	mov	a,#0x40
	push	acc
	mov	dpl,r2
	mov	dph,r3
	mov	b,r4
	mov	a,r5
	lcall	___fsadd
	mov	r2,dpl
	mov	r3,dph
	mov	r4,b
	mov	r5,a
	mov	a,sp
	add	a,#0xfc
	mov	sp,a
	push	ar2
	push	ar3
	push	ar4
	push	ar5
	mov	dpl,_asincosf_sloc0_1_0
	mov	dph,(_asincosf_sloc0_1_0 + 1)
	mov	b,(_asincosf_sloc0_1_0 + 2)
	mov	a,(_asincosf_sloc0_1_0 + 3)
	lcall	___fsdiv
	mov	r2,dpl
	mov	r3,dph
	mov	r4,b
	mov	r5,a
	mov	a,sp
	add	a,#0xfc
	mov	sp,a
	pop	ar7
	pop	ar6
	mov	dptr,#_asincosf_y_1_1
	movx	a,@dptr
	mov	r6,a
	inc	dptr
	movx	a,@dptr
	mov	r7,a
	inc	dptr
	movx	a,@dptr
	mov	r0,a
	inc	dptr
	movx	a,@dptr
	mov	r1,a
	push	ar6
	push	ar7
	push	ar0
	push	ar1
	push	ar2
	push	ar3
	push	ar4
	push	ar5
	mov	dpl,r6
	mov	dph,r7
	mov	b,r0
	mov	a,r1
	lcall	___fsmul
	mov	r2,dpl
	mov	r3,dph
	mov	r4,b
	mov	r5,a
	mov	a,sp
	add	a,#0xfc
	mov	sp,a
	pop	ar1
	pop	ar0
	pop	ar7
	pop	ar6
	push	ar6
	push	ar7
	push	ar2
	push	ar3
	push	ar4
	push	ar5
	mov	dpl,r6
	mov	dph,r7
	mov	b,r0
	mov	a,r1
	lcall	___fsadd
	mov	r2,dpl
	mov	r3,dph
	mov	r4,b
	mov	r5,a
	mov	a,sp
	add	a,#0xfc
	mov	sp,a
	pop	ar7
	pop	ar6
	mov	dptr,#_asincosf_r_1_1
	mov	a,r2
	movx	@dptr,a
	inc	dptr
	mov	a,r3
	movx	@dptr,a
	inc	dptr
	mov	a,r4
	movx	@dptr,a
	inc	dptr
	mov	a,r5
	movx	@dptr,a
;	asincosf.c:86: return r;
	pop	ar7
	pop	ar6
;	asincosf.c:72: r=y+y*((P(g)*g)/Q(g));
00108$:
;	asincosf.c:74: if (isacos)
	mov	a,r6
	orl	a,r7
	jnz	00128$
	ljmp	00115$
00128$:
;	asincosf.c:76: if (x < 0.0)
	mov	dptr,#_asincosf_x_1_1
	movx	a,@dptr
	mov	r2,a
	inc	dptr
	movx	a,@dptr
	mov	r3,a
	inc	dptr
	movx	a,@dptr
	mov	r4,a
	inc	dptr
	movx	a,@dptr
	mov	r5,a
	clr	a
	push	acc
	push	acc
	push	acc
	push	acc
	mov	dpl,r2
	mov	dph,r3
	mov	b,r4
	mov	a,r5
	lcall	___fslt
	mov	r2,dpl
	mov	a,sp
	add	a,#0xfc
	mov	sp,a
	mov	a,r2
	jnz	00129$
	ljmp	00110$
00129$:
;	asincosf.c:77: r=(b[i]+r)+b[i];
	mov	dptr,#_asincosf_i_1_1
	movx	a,@dptr
	mov	r2,a
	inc	dptr
	movx	a,@dptr
	xch	a,r2
	add	a,acc
	xch	a,r2
	rlc	a
	xch	a,r2
	add	a,acc
	xch	a,r2
	rlc	a
	mov	r3,a
	mov	a,r2
	add	a,#_asincosf_b_1_1
	mov	dpl,a
	mov	a,r3
	addc	a,#(_asincosf_b_1_1 >> 8)
	mov	dph,a
	clr	a
	movc	a,@a+dptr
	mov	r2,a
	inc	dptr
	clr	a
	movc	a,@a+dptr
	mov	r3,a
	inc	dptr
	clr	a
	movc	a,@a+dptr
	mov	r4,a
	inc	dptr
	clr	a
	movc	a,@a+dptr
	mov	r5,a
	push	ar2
	push	ar3
	push	ar4
	push	ar5
	mov	dptr,#_asincosf_r_1_1
	movx	a,@dptr
	push	acc
	inc	dptr
	movx	a,@dptr
	push	acc
	inc	dptr
	movx	a,@dptr
	push	acc
	inc	dptr
	movx	a,@dptr
	push	acc
	mov	dpl,r2
	mov	dph,r3
	mov	b,r4
	mov	a,r5
	lcall	___fsadd
	mov	r6,dpl
	mov	r7,dph
	mov	r0,b
	mov	r1,a
	mov	a,sp
	add	a,#0xfc
	mov	sp,a
	mov	dpl,r6
	mov	dph,r7
	mov	b,r0
	mov	a,r1
	lcall	___fsadd
	mov	r2,dpl
	mov	r3,dph
	mov	r4,b
	mov	r5,a
	mov	a,sp
	add	a,#0xfc
	mov	sp,a
	mov	dptr,#_asincosf_r_1_1
	mov	a,r2
	movx	@dptr,a
	inc	dptr
	mov	a,r3
	movx	@dptr,a
	inc	dptr
	mov	a,r4
	movx	@dptr,a
	inc	dptr
	mov	a,r5
	movx	@dptr,a
	ljmp	00116$
00110$:
;	asincosf.c:79: r=(a[i]-r)+a[i];
	mov	dptr,#_asincosf_i_1_1
	movx	a,@dptr
	mov	r2,a
	inc	dptr
	movx	a,@dptr
	xch	a,r2
	add	a,acc
	xch	a,r2
	rlc	a
	xch	a,r2
	add	a,acc
	xch	a,r2
	rlc	a
	mov	r3,a
	mov	a,r2
	add	a,#_asincosf_a_1_1
	mov	dpl,a
	mov	a,r3
	addc	a,#(_asincosf_a_1_1 >> 8)
	mov	dph,a
	clr	a
	movc	a,@a+dptr
	mov	r2,a
	inc	dptr
	clr	a
	movc	a,@a+dptr
	mov	r3,a
	inc	dptr
	clr	a
	movc	a,@a+dptr
	mov	r4,a
	inc	dptr
	clr	a
	movc	a,@a+dptr
	mov	r5,a
	push	ar2
	push	ar3
	push	ar4
	push	ar5
	mov	dptr,#_asincosf_r_1_1
	movx	a,@dptr
	push	acc
	inc	dptr
	movx	a,@dptr
	push	acc
	inc	dptr
	movx	a,@dptr
	push	acc
	inc	dptr
	movx	a,@dptr
	push	acc
	mov	dpl,r2
	mov	dph,r3
	mov	b,r4
	mov	a,r5
	lcall	___fssub
	mov	r6,dpl
	mov	r7,dph
	mov	r0,b
	mov	r1,a
	mov	a,sp
	add	a,#0xfc
	mov	sp,a
	mov	dpl,r6
	mov	dph,r7
	mov	b,r0
	mov	a,r1
	lcall	___fsadd
	mov	r2,dpl
	mov	r3,dph
	mov	r4,b
	mov	r5,a
	mov	a,sp
	add	a,#0xfc
	mov	sp,a
	mov	dptr,#_asincosf_r_1_1
	mov	a,r2
	movx	@dptr,a
	inc	dptr
	mov	a,r3
	movx	@dptr,a
	inc	dptr
	mov	a,r4
	movx	@dptr,a
	inc	dptr
	mov	a,r5
	movx	@dptr,a
	ljmp	00116$
00115$:
;	asincosf.c:83: r=(a[i]+r)+a[i];
	mov	dptr,#_asincosf_i_1_1
	movx	a,@dptr
	mov	r2,a
	inc	dptr
	movx	a,@dptr
	xch	a,r2
	add	a,acc
	xch	a,r2
	rlc	a
	xch	a,r2
	add	a,acc
	xch	a,r2
	rlc	a
	mov	r3,a
	mov	a,r2
	add	a,#_asincosf_a_1_1
	mov	dpl,a
	mov	a,r3
	addc	a,#(_asincosf_a_1_1 >> 8)
	mov	dph,a
	clr	a
	movc	a,@a+dptr
	mov	r2,a
	inc	dptr
	clr	a
	movc	a,@a+dptr
	mov	r3,a
	inc	dptr
	clr	a
	movc	a,@a+dptr
	mov	r4,a
	inc	dptr
	clr	a
	movc	a,@a+dptr
	mov	r5,a
	push	ar2
	push	ar3
	push	ar4
	push	ar5
	mov	dptr,#_asincosf_r_1_1
	movx	a,@dptr
	push	acc
	inc	dptr
	movx	a,@dptr
	push	acc
	inc	dptr
	movx	a,@dptr
	push	acc
	inc	dptr
	movx	a,@dptr
	push	acc
	mov	dpl,r2
	mov	dph,r3
	mov	b,r4
	mov	a,r5
	lcall	___fsadd
	mov	r6,dpl
	mov	r7,dph
	mov	r0,b
	mov	r1,a
	mov	a,sp
	add	a,#0xfc
	mov	sp,a
	mov	dpl,r6
	mov	dph,r7
	mov	b,r0
	mov	a,r1
	lcall	___fsadd
	mov	r2,dpl
	mov	r3,dph
	mov	r4,b
	mov	r5,a
	mov	a,sp
	add	a,#0xfc
	mov	sp,a
	mov	dptr,#_asincosf_r_1_1
	mov	a,r2
	movx	@dptr,a
	inc	dptr
	mov	a,r3
	movx	@dptr,a
	inc	dptr
	mov	a,r4
	movx	@dptr,a
	inc	dptr
	mov	a,r5
	movx	@dptr,a
;	asincosf.c:84: if (x<0.0) r=-r;
	mov	dptr,#_asincosf_x_1_1
	movx	a,@dptr
	mov	r2,a
	inc	dptr
	movx	a,@dptr
	mov	r3,a
	inc	dptr
	movx	a,@dptr
	mov	r4,a
	inc	dptr
	movx	a,@dptr
	mov	r5,a
	clr	a
	push	acc
	push	acc
	push	acc
	push	acc
	mov	dpl,r2
	mov	dph,r3
	mov	b,r4
	mov	a,r5
	lcall	___fslt
	mov	r2,dpl
	mov	a,sp
	add	a,#0xfc
	mov	sp,a
	mov	a,r2
	jz	00116$
	mov	dptr,#_asincosf_r_1_1
	movx	a,@dptr
	mov	r2,a
	inc	dptr
	movx	a,@dptr
	mov	r3,a
	inc	dptr
	movx	a,@dptr
	mov	r4,a
	inc	dptr
	movx	a,@dptr
	mov	r5,a
	mov	dptr,#_asincosf_r_1_1
	mov	a,r2
	movx	@dptr,a
	inc	dptr
	mov	a,r3
	movx	@dptr,a
	inc	dptr
	mov	a,r4
	movx	@dptr,a
	mov	a,r5
	cpl	acc.7
	inc	dptr
	movx	@dptr,a
00116$:
;	asincosf.c:86: return r;
	mov	dptr,#_asincosf_r_1_1
	movx	a,@dptr
	mov	r2,a
	inc	dptr
	movx	a,@dptr
	mov	r3,a
	inc	dptr
	movx	a,@dptr
	mov	r4,a
	inc	dptr
	movx	a,@dptr
	mov	dpl,r2
	mov	dph,r3
	mov	b,r4
	ret
	.area CSEG    (CODE)
	.area CONST   (CODE)
_asincosf_a_1_1:
	.byte #0x00,#0x00,#0x00,#0x00
	.byte #0xDB,#0x0F,#0x49,#0x3F
_asincosf_b_1_1:
	.byte #0xDB,#0x0F,#0xC9,#0x3F
	.byte #0xDB,#0x0F,#0x49,#0x3F
	.area XINIT   (CODE)
	.area CABS    (ABS,CODE)
